target datalayout = "e-m:e-p270:32:32-p271:32:32-p272:64:64-i64:64-i128:128-f80:128-n8:16:32:64-S128"
target triple = "x86_64-pc-linux-gnu"

%"struct.cv::utils::trace::details::Region::LocationStaticStorage" = type { ptr, ptr, ptr, i32, i32 }
%"class.cv::utils::trace::details::Region" = type <{ ptr, i32, [4 x i8] }>
%union.Cv32suf = type { i32 }

@_ZZN2cv8cubeRootEfE25__cv_trace_location_fn106 = internal constant %"struct.cv::utils::trace::details::Region::LocationStaticStorage" { ptr @_ZZN2cv8cubeRootEfE31__cv_trace_location_extra_fn106, ptr @.str, ptr @.str.1, i32 106, i32 1 }, align 8

; Function Attrs: inlinehint mustprogress nounwind uwtable
define linkonce_odr hidden void @_ZN2cv5utils5trace7details6RegionD2Ev(ptr noundef nonnull align 8 dereferenceable(12) %0) unnamed_addr #7 comdat align 2 personality ptr @__gxx_personality_v0 {
  %2 = alloca ptr, align 8
  store ptr %0, ptr %2, align 8, !tbaa !10
  %3 = load ptr, ptr %2, align 8
  %4 = getelementptr inbounds nuw %"class.cv::utils::trace::details::Region", ptr %3, i32 0, i32 1
  %5 = load i32, ptr %4, align 8, !tbaa !13
  %6 = icmp ne i32 %5, 0
  br i1 %6, label %7, label %9

7:                                                ; preds = %1
  invoke void @_ZN2cv5utils5trace7details6Region7destroyEv(ptr noundef nonnull align 8 dereferenceable(12) %3)
          to label %8 unwind label %10

8:                                                ; preds = %7
  br label %9

9:                                                ; preds = %8, %1
  ret void

10:                                               ; preds = %7
  %11 = landingpad { ptr, i32 }
          catch ptr null
  %12 = extractvalue { ptr, i32 } %11, 0
  call void @__clang_call_terminate(ptr %12) #22
  unreachable
}

; Function Attrs: mustprogress uwtable
define noundef float @_ZN2cv8cubeRootEf(float noundef %0) #4 {
  %2 = alloca float, align 4
  %3 = alloca %"class.cv::utils::trace::details::Region", align 8
  %4 = alloca float, align 4
  %5 = alloca %union.Cv32suf, align 4
  %6 = alloca %union.Cv32suf, align 4
  %7 = alloca i32, align 4
  %8 = alloca i32, align 4
  %9 = alloca i32, align 4
  %10 = alloca i32, align 4
  store float %0, ptr %2, align 4, !tbaa !3
  call void @llvm.lifetime.start.p0(i64 16, ptr %3) #3
  call void @_ZN2cv5utils5trace7details6RegionC1ERKNS3_21LocationStaticStorageE(ptr noundef nonnull align 8 dereferenceable(12) %3, ptr noundef nonnull align 8 dereferenceable(32) @_ZZN2cv8cubeRootEfE25__cv_trace_location_fn106)
  call void @llvm.lifetime.start.p0(i64 4, ptr %4) #3
  call void @llvm.lifetime.start.p0(i64 4, ptr %5) #3
  call void @llvm.lifetime.start.p0(i64 4, ptr %6) #3
  call void @llvm.lifetime.start.p0(i64 4, ptr %7) #3
  call void @llvm.lifetime.start.p0(i64 4, ptr %8) #3
  call void @llvm.lifetime.start.p0(i64 4, ptr %9) #3
  call void @llvm.lifetime.start.p0(i64 4, ptr %10) #3
  %11 = load float, ptr %2, align 4, !tbaa !3
  store float %11, ptr %5, align 4, !tbaa !7
  %12 = load i32, ptr %5, align 4, !tbaa !7
  %13 = and i32 %12, 2147483647
  store i32 %13, ptr %7, align 4, !tbaa !8
  %14 = load i32, ptr %5, align 4, !tbaa !7
  %15 = and i32 %14, -2147483648
  store i32 %15, ptr %8, align 4, !tbaa !8
  %16 = load i32, ptr %7, align 4, !tbaa !8
  %17 = ashr i32 %16, 23
  %18 = sub nsw i32 %17, 127
  store i32 %18, ptr %9, align 4, !tbaa !8
  %19 = load i32, ptr %9, align 4, !tbaa !8
  %20 = srem i32 %19, 3
  store i32 %20, ptr %10, align 4, !tbaa !8
  %21 = load i32, ptr %10, align 4, !tbaa !8
  %22 = icmp sge i32 %21, 0
  %23 = select i1 %22, i32 3, i32 0
  %24 = load i32, ptr %10, align 4, !tbaa !8
  %25 = sub nsw i32 %24, %23
  store i32 %25, ptr %10, align 4, !tbaa !8
  %26 = load i32, ptr %9, align 4, !tbaa !8
  %27 = load i32, ptr %10, align 4, !tbaa !8
  %28 = sub nsw i32 %26, %27
  %29 = sdiv i32 %28, 3
  store i32 %29, ptr %9, align 4, !tbaa !8
  %30 = load i32, ptr %7, align 4, !tbaa !8
  %31 = and i32 %30, 8388607
  %32 = load i32, ptr %10, align 4, !tbaa !8
  %33 = add nsw i32 %32, 127
  %34 = shl i32 %33, 23
  %35 = or i32 %31, %34
  store i32 %35, ptr %5, align 4, !tbaa !7
  %36 = load float, ptr %5, align 4, !tbaa !7
  store float %36, ptr %4, align 4, !tbaa !3
  %37 = load float, ptr %4, align 4, !tbaa !3
  %38 = fpext float %37 to double
  %39 = call double @llvm.fmuladd.f64(double 0x4046A09E6653BA70, double %38, double 0x406808F46C6116E0)
  %40 = load float, ptr %4, align 4, !tbaa !3
  %41 = fpext float %40 to double
  %42 = call double @llvm.fmuladd.f64(double %39, double %41, double 0x405DCA97439CAE14)
  %43 = load float, ptr %4, align 4, !tbaa !3
  %44 = fpext float %43 to double
  %45 = call double @llvm.fmuladd.f64(double %42, double %44, double 0x402ADD70D2827500)
  %46 = load float, ptr %4, align 4, !tbaa !3
  %47 = fpext float %46 to double
  %48 = call double @llvm.fmuladd.f64(double %45, double %47, double 0x3FC4F15F83F55D2D)
  %49 = load float, ptr %4, align 4, !tbaa !3
  %50 = fpext float %49 to double
  %51 = call double @llvm.fmuladd.f64(double 0x402D9E20660EDB21, double %50, double 0x4062FF15C0285815)
  %52 = load float, ptr %4, align 4, !tbaa !3
  %53 = fpext float %52 to double
  %54 = call double @llvm.fmuladd.f64(double %51, double %53, double 0x406510D06A8112CE)
  %55 = load float, ptr %4, align 4, !tbaa !3
  %56 = fpext float %55 to double
  %57 = call double @llvm.fmuladd.f64(double %54, double %56, double 0x4040FECBC9E2C375)
  %58 = load float, ptr %4, align 4, !tbaa !3
  %59 = fpext float %58 to double
  %60 = call double @llvm.fmuladd.f64(double %57, double %59, double 1.000000e+00)
  %61 = fdiv double %48, %60
  %62 = fptrunc double %61 to float
  store float %62, ptr %4, align 4, !tbaa !3
  %63 = load float, ptr %2, align 4, !tbaa !3
  store float %63, ptr %6, align 4, !tbaa !7
  %64 = load float, ptr %4, align 4, !tbaa !3
  store float %64, ptr %5, align 4, !tbaa !7
  %65 = load i32, ptr %5, align 4, !tbaa !7
  %66 = load i32, ptr %9, align 4, !tbaa !8
  %67 = shl i32 %66, 23
  %68 = add nsw i32 %65, %67
  %69 = load i32, ptr %8, align 4, !tbaa !8
  %70 = add nsw i32 %68, %69
  %71 = load i32, ptr %6, align 4, !tbaa !7
  %72 = mul nsw i32 %71, 2
  %73 = icmp ne i32 %72, 0
  %74 = select i1 %73, i32 -1, i32 0
  %75 = and i32 %70, %74
  store i32 %75, ptr %5, align 4, !tbaa !7
  %76 = load float, ptr %5, align 4, !tbaa !7
  call void @llvm.lifetime.end.p0(i64 4, ptr %10) #3
  call void @llvm.lifetime.end.p0(i64 4, ptr %9) #3
  call void @llvm.lifetime.end.p0(i64 4, ptr %8) #3
  call void @llvm.lifetime.end.p0(i64 4, ptr %7) #3
  call void @llvm.lifetime.end.p0(i64 4, ptr %6) #3
  call void @llvm.lifetime.end.p0(i64 4, ptr %5) #3
  call void @llvm.lifetime.end.p0(i64 4, ptr %4) #3
  call void @_ZN2cv5utils5trace7details6RegionD2Ev(ptr noundef nonnull align 8 dereferenceable(12) %3) #3
  call void @llvm.lifetime.end.p0(i64 16, ptr %3) #3
  ret float %76
}