; Function Attrs: mustprogress uwtable
define noundef float @_ZN2cv8cubeRootEf(float noundef %0) local_unnamed_addr #3 personality ptr @__gxx_personality_v0 {
  %2 = alloca %"class.cv::utils::trace::details::Region", align 8
  call void @llvm.lifetime.start.p0(i64 16, ptr nonnull %2) #27
  call void @_ZN2cv5utils5trace7details6RegionC1ERKNS3_21LocationStaticStorageE(ptr noundef nonnull align 8 dereferenceable(12) %2, ptr noundef nonnull align 8 dereferenceable(32) @_ZZN2cv8cubeRootEfE25__cv_trace_location_fn106)
  %3 = getelementptr inbounds nuw i8, ptr %2, i64 8
  %4 = load i32, ptr %3, align 8, !tbaa !3
  %.not.i = icmp eq i32 %4, 0
  br i1 %.not.i, label %_ZN2cv5utils5trace7details6RegionD2Ev.exit, label %5

5:                                                ; preds = %1
  invoke void @_ZN2cv5utils5trace7details6Region7destroyEv(ptr noundef nonnull align 8 dereferenceable(12) %2)
          to label %_ZN2cv5utils5trace7details6RegionD2Ev.exit unwind label %6

6:                                                ; preds = %5
  %7 = landingpad { ptr, i32 }
          catch ptr null
  %8 = extractvalue { ptr, i32 } %7, 0
  call void @__clang_call_terminate(ptr %8) #28
  unreachable

_ZN2cv5utils5trace7details6RegionD2Ev.exit:       ; preds = %1, %5
  %9 = bitcast float %0 to i32
  %.not.not = icmp eq i32 %9, 0
  %10 = call float @llvm.fabs.f32(float %0)
  %11 = bitcast float %10 to i32
  %12 = lshr i32 %11, 23
  %13 = add nsw i32 %12, -127
  %.lhs.trunc = trunc nsw i32 %13 to i16
  %14 = srem i16 %.lhs.trunc, 3
  %.inv = icmp slt i16 %14, 0
  %.neg = select i1 %.inv, i32 0, i32 -3
  %.sext = sext i16 %14 to i32
  %15 = add nsw i32 %.neg, %.sext
  %16 = sub nsw i32 %13, %15
  %.lhs.trunc24 = trunc nsw i32 %16 to i16
  %17 = sdiv i16 %.lhs.trunc24, 3
  %.sext25 = sext i16 %17 to i32
  %18 = shl nsw i32 %.sext25, 23
  %19 = and i32 %11, 8388607
  %20 = shl nsw i32 %15, 23
  %21 = add nsw i32 %20, 1065353216
  %22 = or disjoint i32 %21, %19
  %23 = bitcast i32 %22 to float
  %24 = fpext float %23 to double
  %25 = call double @llvm.fmuladd.f64(double %24, double 0x4046A09E6653BA70, double 0x406808F46C6116E0)
  %26 = call double @llvm.fmuladd.f64(double %25, double %24, double 0x405DCA97439CAE14)
  %27 = call double @llvm.fmuladd.f64(double %26, double %24, double 0x402ADD70D2827500)
  %28 = call double @llvm.fmuladd.f64(double %27, double %24, double 0x3FC4F15F83F55D2D)
  %29 = call double @llvm.fmuladd.f64(double %24, double 0x402D9E20660EDB21, double 0x4062FF15C0285815)
  %30 = call double @llvm.fmuladd.f64(double %29, double %24, double 0x406510D06A8112CE)
  %31 = call double @llvm.fmuladd.f64(double %30, double %24, double 0x4040FECBC9E2C375)
  %32 = call double @llvm.fmuladd.f64(double %31, double %24, double 1.000000e+00)
  %33 = fdiv double %28, %32
  %34 = fptrunc double %33 to float
  %35 = bitcast float %34 to i32
  %36 = and i32 %9, -2147483648
  %37 = add i32 %18, %36
  %38 = add i32 %37, %35
  %39 = select i1 %.not.not, i32 0, i32 %38
  %40 = bitcast i32 %39 to float
  call void @llvm.lifetime.end.p0(i64 16, ptr nonnull %2) #27
  ret float %40
}